target datalayout = "e-m:e-p270:32:32-p271:32:32-p272:64:64-i64:64-i128:128-f80:128-n8:16:32:64-S128"
target triple = "x86_64-pc-linux-gnu"

%struct.pmix_shmem_t = type { %struct.pmix_object_t, i8, i64, ptr, ptr, [4097 x i8] }
%struct.pmix_object_t = type { %union.pthread_mutex_t, ptr, i32, %struct.pmix_tma }
%union.pthread_mutex_t = type { %struct.__pthread_mutex_s }
%struct.__pthread_mutex_s = type { i32, i32, i32, i32, i32, i16, i16, %struct.__pthread_internal_list }
%struct.__pthread_internal_list = type { ptr, ptr }
%struct.pmix_tma = type { ptr, ptr, ptr, ptr, ptr, ptr, ptr, ptr }

; Function Attrs: nounwind uwtable
define i32 @pmix_shmem_segment_detach(ptr noundef %0) #0 {
  %2 = alloca ptr, align 8
  %3 = alloca i32, align 4
  store ptr %0, ptr %2, align 8, !tbaa !3
  call void @llvm.lifetime.start.p0(i64 4, ptr %3) #7
  store i32 0, ptr %3, align 4, !tbaa !12
  %4 = load ptr, ptr %2, align 8, !tbaa !3
  %5 = icmp ne ptr %4, null
  br i1 %5, label %6, label %25

6:                                                ; preds = %1
  %7 = load ptr, ptr %2, align 8, !tbaa !3
  %8 = getelementptr inbounds nuw %struct.pmix_shmem_t, ptr %7, i32 0, i32 1
  %9 = load volatile i8, ptr %8, align 8, !tbaa !23, !range !27, !noundef !28
  %10 = trunc i8 %9 to i1
  br i1 %10, label %11, label %25

11:                                               ; preds = %6
  %12 = load ptr, ptr %2, align 8, !tbaa !3
  %13 = getelementptr inbounds nuw %struct.pmix_shmem_t, ptr %12, i32 0, i32 3
  %14 = load ptr, ptr %13, align 8, !tbaa !20
  %15 = load ptr, ptr %2, align 8, !tbaa !3
  %16 = getelementptr inbounds nuw %struct.pmix_shmem_t, ptr %15, i32 0, i32 2
  %17 = load i64, ptr %16, align 8, !tbaa !14
  %18 = call i32 @munmap(ptr noundef %14, i64 noundef %17) #7
  store i32 %18, ptr %3, align 4, !tbaa !12
  %19 = load ptr, ptr %2, align 8, !tbaa !3
  %20 = getelementptr inbounds nuw %struct.pmix_shmem_t, ptr %19, i32 0, i32 1
  store volatile i8 0, ptr %20, align 8, !tbaa !23
  %21 = load ptr, ptr %2, align 8, !tbaa !3
  %22 = getelementptr inbounds nuw %struct.pmix_shmem_t, ptr %21, i32 0, i32 3
  store ptr null, ptr %22, align 8, !tbaa !20
  %23 = load ptr, ptr %2, align 8, !tbaa !3
  %24 = getelementptr inbounds nuw %struct.pmix_shmem_t, ptr %23, i32 0, i32 4
  store ptr null, ptr %24, align 8, !tbaa !24
  br label %25

25:                                               ; preds = %11, %6, %1
  %26 = load i32, ptr %3, align 4, !tbaa !12
  %27 = icmp eq i32 0, %26
  %28 = select i1 %27, i32 0, i32 -1
  call void @llvm.lifetime.end.p0(i64 4, ptr %3) #7
  ret i32 %28
}