; Function Attrs: nounwind uwtable
define range(i32 -1, 1) i32 @pmix_shmem_segment_detach(ptr noundef %0) local_unnamed_addr #0 {
  %.not = icmp eq ptr %0, null
  br i1 %.not, label %14, label %2

2:                                                ; preds = %1
  %3 = getelementptr inbounds nuw i8, ptr %0, i64 120
  %4 = load volatile i8, ptr %3, align 8, !tbaa !15, !range !16, !noundef !17
  %5 = trunc nuw i8 %4 to i1
  br i1 %5, label %6, label %14

6:                                                ; preds = %2
  %7 = getelementptr inbounds nuw i8, ptr %0, i64 136
  %8 = load ptr, ptr %7, align 8, !tbaa !14
  %9 = getelementptr inbounds nuw i8, ptr %0, i64 128
  %10 = load i64, ptr %9, align 8, !tbaa !3
  %11 = tail call i32 @munmap(ptr noundef %8, i64 noundef %10) #8
  store volatile i8 0, ptr %3, align 8, !tbaa !15
  %12 = icmp ne i32 %11, 0
  %13 = sext i1 %12 to i32
  tail call void @llvm.memset.p0.i64(ptr noundef nonnull align 8 dereferenceable(16) %7, i8 0, i64 16, i1 false)
  br label %14

14:                                               ; preds = %6, %2, %1
  %.0 = phi i32 [ %13, %6 ], [ 0, %2 ], [ 0, %1 ]
  ret i32 %.0
}